; ModuleID = 'source-C-CXX/25/723.c'
source_filename = "source-C-CXX/25/723.c"
target datalayout = "e-m:e-p270:32:32-p271:32:32-p272:64:64-i64:64-f80:128-n8:16:32:64-S128"
target triple = "x86_64-pc-linux-gnu"

; Function Attrs: nounwind sspstrong uwtable
define dso_local i32 @main(i32 %0, i8** nocapture readnone %1) local_unnamed_addr #0 {
  %3 = alloca [100 x i8], align 16
  %4 = getelementptr inbounds [100 x i8], [100 x i8]* %3, i64 0, i64 0
  call void @llvm.lifetime.start.p0i8(i64 100, i8* nonnull %4) #5
  %5 = call i32 (i8*, ...) bitcast (i32 (...)* @gets to i32 (i8*, ...)*)(i8* nonnull %4) #5
  %6 = call i64 @strlen(i8* noundef nonnull %4) #6
  %7 = trunc i64 %6 to i32
  %8 = load i8, i8* %4, align 16, !tbaa !5
  %9 = icmp eq i8 %8, 32
  br i1 %9, label %13, label %10

10:                                               ; preds = %2
  %11 = sext i8 %8 to i32
  %12 = call i32 @putchar(i32 %11)
  br label %13

13:                                               ; preds = %10, %2
  %14 = icmp sgt i32 %7, 1
  br i1 %14, label %15, label %35

15:                                               ; preds = %13
  %16 = and i64 %6, 4294967295
  br label %17

17:                                               ; preds = %15, %32
  %18 = phi i64 [ 1, %15 ], [ %33, %32 ]
  %19 = getelementptr inbounds [100 x i8], [100 x i8]* %3, i64 0, i64 %18
  %20 = load i8, i8* %19, align 1, !tbaa !5
  %21 = icmp eq i8 %20, 32
  br i1 %21, label %24, label %22

22:                                               ; preds = %17
  %23 = sext i8 %20 to i32
  br label %29

24:                                               ; preds = %17
  %25 = add nsw i64 %18, -1
  %26 = getelementptr inbounds [100 x i8], [100 x i8]* %3, i64 0, i64 %25
  %27 = load i8, i8* %26, align 1, !tbaa !5
  %28 = icmp eq i8 %27, 32
  br i1 %28, label %32, label %29

29:                                               ; preds = %24, %22
  %30 = phi i32 [ %23, %22 ], [ 32, %24 ]
  %31 = call i32 @putchar(i32 %30)
  br label %32

32:                                               ; preds = %29, %24
  %33 = add nuw nsw i64 %18, 1
  %34 = icmp eq i64 %33, %16
  br i1 %34, label %35, label %17, !llvm.loop !8

35:                                               ; preds = %32, %13
  call void @llvm.lifetime.end.p0i8(i64 100, i8* nonnull %4) #5
  ret i32 0
}

; Function Attrs: argmemonly mustprogress nofree nosync nounwind willreturn
declare void @llvm.lifetime.start.p0i8(i64 immarg, i8* nocapture) #1

declare i32 @gets(...) local_unnamed_addr #2

; Function Attrs: argmemonly mustprogress nofree nounwind readonly willreturn
declare i64 @strlen(i8* nocapture) local_unnamed_addr #3

; Function Attrs: argmemonly mustprogress nofree nosync nounwind willreturn
declare void @llvm.lifetime.end.p0i8(i64 immarg, i8* nocapture) #1

; Function Attrs: nofree nounwind
declare noundef i32 @putchar(i32 noundef) local_unnamed_addr #4


!llvm.module.flags = !{!0, !1, !2, !3}
!llvm.ident = !{!4}

!0 = !{i32 1, !"wchar_size", i32 4}
!1 = !{i32 7, !"PIC Level", i32 2}
!2 = !{i32 7, !"PIE Level", i32 2}
!3 = !{i32 7, !"uwtable", i32 1}
!4 = !{!"clang version 13.0.0"}
!5 = !{!6, !6, i64 0}
!6 = !{!"omnipotent char", !7, i64 0}
!7 = !{!"Simple C/C++ TBAA"}
!8 = distinct !{!8, !9}
!9 = !{!"llvm.loop.mustprogress"}
